; Function Attrs: mustprogress nofree norecurse nosync nounwind memory(read, argmem: readwrite, inaccessiblemem: none) uwtable
define hidden void @_ZN2cv4gapi5fluid12cpu_baseline19run_medblur3x3_implEPsPPKsii(ptr nocapture noundef writeonly %0, ptr nocapture noundef readonly %1, i32 noundef %2, i32 noundef %3) local_unnamed_addr #6 {
  %5 = mul nsw i32 %3, %2
  %6 = icmp sgt i32 %5, 0
  br i1 %6, label %.lr.ph.i.i, label %_ZN2cv4gapi5fluid12cpu_baselineL19run_medblur3x3_codeIsEEvPT_PPKS4_ii.exit

.lr.ph.i.i:                                       ; preds = %4
  %7 = getelementptr inbounds i8, ptr %1, i64 8
  %8 = getelementptr inbounds i8, ptr %1, i64 16
  %9 = sext i32 %3 to i64
  %wide.trip.count.i.i = zext nneg i32 %5 to i64
  br label %10

10:                                               ; preds = %10, %.lr.ph.i.i
  %indvars.iv.i.i = phi i64 [ 0, %.lr.ph.i.i ], [ %indvars.iv.next.i.i, %10 ]
  %11 = load ptr, ptr %1, align 8
  %12 = sub nsw i64 %indvars.iv.i.i, %9
  %13 = getelementptr inbounds i16, ptr %11, i64 %12
  %14 = load i16, ptr %13, align 2
  %15 = getelementptr inbounds i16, ptr %11, i64 %indvars.iv.i.i
  %16 = load i16, ptr %15, align 2
  %17 = add nsw i64 %indvars.iv.i.i, %9
  %18 = getelementptr inbounds i16, ptr %11, i64 %17
  %19 = load i16, ptr %18, align 2
  %20 = load ptr, ptr %7, align 8
  %21 = getelementptr inbounds i16, ptr %20, i64 %12
  %22 = load i16, ptr %21, align 2
  %23 = getelementptr inbounds i16, ptr %20, i64 %indvars.iv.i.i
  %24 = load i16, ptr %23, align 2
  %25 = getelementptr inbounds i16, ptr %20, i64 %17
  %26 = load i16, ptr %25, align 2
  %27 = load ptr, ptr %8, align 8
  %28 = getelementptr inbounds i16, ptr %27, i64 %12
  %29 = load i16, ptr %28, align 2
  %30 = getelementptr inbounds i16, ptr %27, i64 %indvars.iv.i.i
  %31 = load i16, ptr %30, align 2
  %32 = getelementptr inbounds i16, ptr %27, i64 %17
  %33 = load i16, ptr %32, align 2
  %.sroa.speculated4.i.i.i = tail call i16 @llvm.smin.i16(i16 %16, i16 %14)
  %.sroa.speculated.i.i.i = tail call i16 @llvm.smax.i16(i16 %14, i16 %16)
  %.sroa.speculated4.i31.i.i = tail call i16 @llvm.smin.i16(i16 %19, i16 %.sroa.speculated.i.i.i)
  %.sroa.speculated.i32.i.i = tail call i16 @llvm.smax.i16(i16 %.sroa.speculated.i.i.i, i16 %19)
  %.sroa.speculated4.i33.i.i = tail call i16 @llvm.smin.i16(i16 %.sroa.speculated4.i31.i.i, i16 %.sroa.speculated4.i.i.i)
  %.sroa.speculated.i34.i.i = tail call i16 @llvm.smax.i16(i16 %.sroa.speculated4.i.i.i, i16 %.sroa.speculated4.i31.i.i)
  %.sroa.speculated4.i35.i.i = tail call i16 @llvm.smin.i16(i16 %24, i16 %22)
  %.sroa.speculated.i36.i.i = tail call i16 @llvm.smax.i16(i16 %22, i16 %24)
  %.sroa.speculated4.i37.i.i = tail call i16 @llvm.smin.i16(i16 %26, i16 %.sroa.speculated.i36.i.i)
  %.sroa.speculated.i38.i.i = tail call i16 @llvm.smax.i16(i16 %.sroa.speculated.i36.i.i, i16 %26)
  %.sroa.speculated4.i39.i.i = tail call i16 @llvm.smin.i16(i16 %.sroa.speculated4.i37.i.i, i16 %.sroa.speculated4.i35.i.i)
  %.sroa.speculated.i40.i.i = tail call i16 @llvm.smax.i16(i16 %.sroa.speculated4.i35.i.i, i16 %.sroa.speculated4.i37.i.i)
  %.sroa.speculated4.i41.i.i = tail call i16 @llvm.smin.i16(i16 %31, i16 %29)
  %.sroa.speculated.i42.i.i = tail call i16 @llvm.smax.i16(i16 %29, i16 %31)
  %.sroa.speculated4.i43.i.i = tail call i16 @llvm.smin.i16(i16 %33, i16 %.sroa.speculated.i42.i.i)
  %.sroa.speculated.i44.i.i = tail call i16 @llvm.smax.i16(i16 %.sroa.speculated.i42.i.i, i16 %33)
  %.sroa.speculated4.i45.i.i = tail call i16 @llvm.smin.i16(i16 %.sroa.speculated4.i43.i.i, i16 %.sroa.speculated4.i41.i.i)
  %.sroa.speculated.i46.i.i = tail call i16 @llvm.smax.i16(i16 %.sroa.speculated4.i41.i.i, i16 %.sroa.speculated4.i43.i.i)
  %.sroa.speculated.i48.i.i = tail call i16 @llvm.smax.i16(i16 %.sroa.speculated4.i33.i.i, i16 %.sroa.speculated4.i39.i.i)
  %.sroa.speculated4.i49.i.i = tail call i16 @llvm.smin.i16(i16 %.sroa.speculated.i40.i.i, i16 %.sroa.speculated.i34.i.i)
  %.sroa.speculated.i50.i.i = tail call i16 @llvm.smax.i16(i16 %.sroa.speculated.i34.i.i, i16 %.sroa.speculated.i40.i.i)
  %.sroa.speculated.i52.i.i = tail call i16 @llvm.smax.i16(i16 %.sroa.speculated.i48.i.i, i16 %.sroa.speculated4.i45.i.i)
  %.sroa.speculated4.i53.i.i = tail call i16 @llvm.smin.i16(i16 %.sroa.speculated.i46.i.i, i16 %.sroa.speculated.i50.i.i)
  %.sroa.speculated4.i55.i.i = tail call i16 @llvm.smin.i16(i16 %.sroa.speculated.i44.i.i, i16 %.sroa.speculated.i38.i.i)
  %.sroa.speculated.i58.i.i = tail call i16 @llvm.smax.i16(i16 %.sroa.speculated4.i49.i.i, i16 %.sroa.speculated4.i53.i.i)
  %.sroa.speculated4.i59.i.i = tail call i16 @llvm.smin.i16(i16 %.sroa.speculated4.i55.i.i, i16 %.sroa.speculated.i32.i.i)
  %.sroa.speculated4.i61.i.i = tail call i16 @llvm.smin.i16(i16 %.sroa.speculated4.i59.i.i, i16 %.sroa.speculated.i58.i.i)
  %.sroa.speculated.i62.i.i = tail call i16 @llvm.smax.i16(i16 %.sroa.speculated.i58.i.i, i16 %.sroa.speculated4.i59.i.i)
  %.sroa.speculated.i64.i.i = tail call i16 @llvm.smax.i16(i16 %.sroa.speculated.i52.i.i, i16 %.sroa.speculated4.i61.i.i)
  %.sroa.speculated4.i65.i.i = tail call i16 @llvm.smin.i16(i16 %.sroa.speculated.i62.i.i, i16 %.sroa.speculated.i64.i.i)
  %34 = getelementptr inbounds i16, ptr %0, i64 %indvars.iv.i.i
  store i16 %.sroa.speculated4.i65.i.i, ptr %34, align 2
  %indvars.iv.next.i.i = add nuw nsw i64 %indvars.iv.i.i, 1
  %exitcond.not.i.i = icmp eq i64 %indvars.iv.next.i.i, %wide.trip.count.i.i
  br i1 %exitcond.not.i.i, label %_ZN2cv4gapi5fluid12cpu_baselineL19run_medblur3x3_codeIsEEvPT_PPKS4_ii.exit, label %10, !llvm.loop !234

_ZN2cv4gapi5fluid12cpu_baselineL19run_medblur3x3_codeIsEEvPT_PPKS4_ii.exit: ; preds = %10, %4
  ret void
}